; Function Attrs: mustprogress nofree norecurse nounwind willreturn memory(readwrite, argmem: none, inaccessiblemem: none) uwtable
define hidden zeroext i1 @je_extent_dss_mergeable(ptr noundef readnone captures(address) %0, ptr noundef readnone captures(address) %1) local_unnamed_addr #0 {
  %3 = load ptr, ptr @dss_base, align 8, !tbaa !74
  %4 = icmp ult ptr %0, %3
  %5 = icmp ult ptr %1, %3
  %or.cond = and i1 %4, %5
  br i1 %or.cond, label %15, label %atomic_load_p.exit

atomic_load_p.exit:                               ; preds = %2
  %6 = load atomic i64, ptr @dss_max.0 acquire, align 8
  %.0.i = inttoptr i64 %6 to ptr
  %7 = load ptr, ptr @dss_base, align 8, !tbaa !74
  %8 = icmp uge ptr %0, %7
  %9 = icmp ult ptr %0, %.0.i
  %10 = and i1 %9, %8
  %11 = icmp uge ptr %1, %.0.i
  %12 = icmp ult ptr %1, %7
  %13 = or i1 %11, %12
  %14 = xor i1 %10, %13
  br label %15

15:                                               ; preds = %2, %atomic_load_p.exit
  %.0 = phi i1 [ %14, %atomic_load_p.exit ], [ true, %2 ]
  ret i1 %.0
}